
PBL_IR_transfer.elf:     file format elf32-avr

Sections:
Idx Name          Size      VMA       LMA       File off  Algn
  0 .data         00000014  00800100  00000332  000003a6  2**0
                  CONTENTS, ALLOC, LOAD, DATA
  1 .text         00000332  00000000  00000000  00000074  2**1
                  CONTENTS, ALLOC, LOAD, READONLY, CODE
  2 .comment      00000030  00000000  00000000  000003ba  2**0
                  CONTENTS, READONLY
  3 .note.gnu.avr.deviceinfo 00000040  00000000  00000000  000003ec  2**2
                  CONTENTS, READONLY
  4 .debug_aranges 000000a0  00000000  00000000  0000042c  2**0
                  CONTENTS, READONLY, DEBUGGING
  5 .debug_info   00001167  00000000  00000000  000004cc  2**0
                  CONTENTS, READONLY, DEBUGGING
  6 .debug_abbrev 00000cc5  00000000  00000000  00001633  2**0
                  CONTENTS, READONLY, DEBUGGING
  7 .debug_line   00000730  00000000  00000000  000022f8  2**0
                  CONTENTS, READONLY, DEBUGGING
  8 .debug_frame  00000174  00000000  00000000  00002a28  2**2
                  CONTENTS, READONLY, DEBUGGING
  9 .debug_str    000006d3  00000000  00000000  00002b9c  2**0
                  CONTENTS, READONLY, DEBUGGING
 10 .debug_loc    000005af  00000000  00000000  0000326f  2**0
                  CONTENTS, READONLY, DEBUGGING
 11 .debug_ranges 00000098  00000000  00000000  0000381e  2**0
                  CONTENTS, READONLY, DEBUGGING

Disassembly of section .text:

00000000 <__vectors>:
   0:	0c 94 56 00 	jmp	0xac	; 0xac <__ctors_end>
   4:	0c 94 6b 00 	jmp	0xd6	; 0xd6 <__bad_interrupt>
   8:	0c 94 6b 00 	jmp	0xd6	; 0xd6 <__bad_interrupt>
   c:	0c 94 6b 00 	jmp	0xd6	; 0xd6 <__bad_interrupt>
  10:	0c 94 6b 00 	jmp	0xd6	; 0xd6 <__bad_interrupt>
  14:	0c 94 6b 00 	jmp	0xd6	; 0xd6 <__bad_interrupt>
  18:	0c 94 6b 00 	jmp	0xd6	; 0xd6 <__bad_interrupt>
  1c:	0c 94 6b 00 	jmp	0xd6	; 0xd6 <__bad_interrupt>
  20:	0c 94 6b 00 	jmp	0xd6	; 0xd6 <__bad_interrupt>
  24:	0c 94 6b 00 	jmp	0xd6	; 0xd6 <__bad_interrupt>
  28:	0c 94 6b 00 	jmp	0xd6	; 0xd6 <__bad_interrupt>
  2c:	0c 94 6b 00 	jmp	0xd6	; 0xd6 <__bad_interrupt>
  30:	0c 94 6b 00 	jmp	0xd6	; 0xd6 <__bad_interrupt>
  34:	0c 94 6b 00 	jmp	0xd6	; 0xd6 <__bad_interrupt>
  38:	0c 94 6b 00 	jmp	0xd6	; 0xd6 <__bad_interrupt>
  3c:	0c 94 6b 00 	jmp	0xd6	; 0xd6 <__bad_interrupt>
  40:	0c 94 6b 00 	jmp	0xd6	; 0xd6 <__bad_interrupt>
  44:	0c 94 6b 00 	jmp	0xd6	; 0xd6 <__bad_interrupt>
  48:	0c 94 6b 00 	jmp	0xd6	; 0xd6 <__bad_interrupt>
  4c:	0c 94 6b 00 	jmp	0xd6	; 0xd6 <__bad_interrupt>
  50:	0c 94 6b 00 	jmp	0xd6	; 0xd6 <__bad_interrupt>
  54:	0c 94 6b 00 	jmp	0xd6	; 0xd6 <__bad_interrupt>
  58:	0c 94 6b 00 	jmp	0xd6	; 0xd6 <__bad_interrupt>
  5c:	0c 94 6b 00 	jmp	0xd6	; 0xd6 <__bad_interrupt>
  60:	0c 94 6b 00 	jmp	0xd6	; 0xd6 <__bad_interrupt>
  64:	0c 94 6b 00 	jmp	0xd6	; 0xd6 <__bad_interrupt>
  68:	0c 94 6b 00 	jmp	0xd6	; 0xd6 <__bad_interrupt>
  6c:	0c 94 6b 00 	jmp	0xd6	; 0xd6 <__bad_interrupt>
  70:	0c 94 6b 00 	jmp	0xd6	; 0xd6 <__bad_interrupt>
  74:	0c 94 6b 00 	jmp	0xd6	; 0xd6 <__bad_interrupt>
  78:	0c 94 6b 00 	jmp	0xd6	; 0xd6 <__bad_interrupt>
  7c:	0c 94 6b 00 	jmp	0xd6	; 0xd6 <__bad_interrupt>
  80:	0c 94 6b 00 	jmp	0xd6	; 0xd6 <__bad_interrupt>
  84:	0c 94 6b 00 	jmp	0xd6	; 0xd6 <__bad_interrupt>
  88:	0c 94 6b 00 	jmp	0xd6	; 0xd6 <__bad_interrupt>
  8c:	0c 94 6b 00 	jmp	0xd6	; 0xd6 <__bad_interrupt>
  90:	0c 94 6b 00 	jmp	0xd6	; 0xd6 <__bad_interrupt>
  94:	0c 94 6b 00 	jmp	0xd6	; 0xd6 <__bad_interrupt>
  98:	0c 94 6b 00 	jmp	0xd6	; 0xd6 <__bad_interrupt>
  9c:	0c 94 6b 00 	jmp	0xd6	; 0xd6 <__bad_interrupt>
  a0:	0c 94 6b 00 	jmp	0xd6	; 0xd6 <__bad_interrupt>
  a4:	0c 94 6b 00 	jmp	0xd6	; 0xd6 <__bad_interrupt>
  a8:	0c 94 6b 00 	jmp	0xd6	; 0xd6 <__bad_interrupt>

000000ac <__ctors_end>:
  ac:	11 24       	eor	r1, r1
  ae:	1f be       	out	0x3f, r1	; 63
  b0:	cf ef       	ldi	r28, 0xFF	; 255
  b2:	da e0       	ldi	r29, 0x0A	; 10
  b4:	de bf       	out	0x3e, r29	; 62
  b6:	cd bf       	out	0x3d, r28	; 61

000000b8 <__do_copy_data>:
  b8:	11 e0       	ldi	r17, 0x01	; 1
  ba:	a0 e0       	ldi	r26, 0x00	; 0
  bc:	b1 e0       	ldi	r27, 0x01	; 1
  be:	e2 e3       	ldi	r30, 0x32	; 50
  c0:	f3 e0       	ldi	r31, 0x03	; 3
  c2:	02 c0       	rjmp	.+4      	; 0xc8 <__do_copy_data+0x10>
  c4:	05 90       	lpm	r0, Z+
  c6:	0d 92       	st	X+, r0
  c8:	a4 31       	cpi	r26, 0x14	; 20
  ca:	b1 07       	cpc	r27, r17
  cc:	d9 f7       	brne	.-10     	; 0xc4 <__do_copy_data+0xc>
  ce:	0e 94 10 01 	call	0x220	; 0x220 <main>
  d2:	0c 94 97 01 	jmp	0x32e	; 0x32e <_exit>

000000d6 <__bad_interrupt>:
  d6:	0c 94 00 00 	jmp	0	; 0x0 <__vectors>

000000da <GoTo16MHz>:

#include "my_lib.h"


void GoTo16MHz(){
    CLKPR = 0x80;
  da:	e1 e6       	ldi	r30, 0x61	; 97
  dc:	f0 e0       	ldi	r31, 0x00	; 0
  de:	80 e8       	ldi	r24, 0x80	; 128
  e0:	80 83       	st	Z, r24
    CLKPR = 0;
  e2:	10 82       	st	Z, r1
  e4:	08 95       	ret

000000e6 <uart1_send_strings>:
}

int uart1_send_strings(char *string){
  e6:	0f 93       	push	r16
  e8:	1f 93       	push	r17
  ea:	cf 93       	push	r28
  ec:	df 93       	push	r29
  ee:	8c 01       	movw	r16, r24
	int i = 0;
  f0:	c0 e0       	ldi	r28, 0x00	; 0
  f2:	d0 e0       	ldi	r29, 0x00	; 0
	while(string[i] != '\0'){
  f4:	03 c0       	rjmp	.+6      	; 0xfc <uart1_send_strings+0x16>
		UART1_Byte_Send(string[i++]);
  f6:	21 96       	adiw	r28, 0x01	; 1
  f8:	0e 94 90 01 	call	0x320	; 0x320 <UART1_Byte_Send>
    CLKPR = 0;
}

int uart1_send_strings(char *string){
	int i = 0;
	while(string[i] != '\0'){
  fc:	f8 01       	movw	r30, r16
  fe:	ec 0f       	add	r30, r28
 100:	fd 1f       	adc	r31, r29
 102:	80 81       	ld	r24, Z
 104:	81 11       	cpse	r24, r1
 106:	f7 cf       	rjmp	.-18     	; 0xf6 <uart1_send_strings+0x10>
		UART1_Byte_Send(string[i++]);
	}
	return 0;
}
 108:	80 e0       	ldi	r24, 0x00	; 0
 10a:	90 e0       	ldi	r25, 0x00	; 0
 10c:	df 91       	pop	r29
 10e:	cf 91       	pop	r28
 110:	1f 91       	pop	r17
 112:	0f 91       	pop	r16
 114:	08 95       	ret

00000116 <uart1_send_uint8t>:

int uart1_send_uint8t(uint8_t *data){
 116:	0f 93       	push	r16
 118:	1f 93       	push	r17
 11a:	cf 93       	push	r28
 11c:	df 93       	push	r29
 11e:	8c 01       	movw	r16, r24
	int i = 0;
 120:	c0 e0       	ldi	r28, 0x00	; 0
 122:	d0 e0       	ldi	r29, 0x00	; 0
	while(data[i] != 0xFF){
 124:	03 c0       	rjmp	.+6      	; 0x12c <uart1_send_uint8t+0x16>
		UART1_Byte_Send(data[i++]);
 126:	21 96       	adiw	r28, 0x01	; 1
 128:	0e 94 90 01 	call	0x320	; 0x320 <UART1_Byte_Send>
	return 0;
}

int uart1_send_uint8t(uint8_t *data){
	int i = 0;
	while(data[i] != 0xFF){
 12c:	f8 01       	movw	r30, r16
 12e:	ec 0f       	add	r30, r28
 130:	fd 1f       	adc	r31, r29
 132:	80 81       	ld	r24, Z
 134:	8f 3f       	cpi	r24, 0xFF	; 255
 136:	b9 f7       	brne	.-18     	; 0x126 <uart1_send_uint8t+0x10>
		UART1_Byte_Send(data[i++]);
	}
	return 0;
}
 138:	80 e0       	ldi	r24, 0x00	; 0
 13a:	90 e0       	ldi	r25, 0x00	; 0
 13c:	df 91       	pop	r29
 13e:	cf 91       	pop	r28
 140:	1f 91       	pop	r17
 142:	0f 91       	pop	r16
 144:	08 95       	ret

00000146 <init_arr>:

int init_arr(uint8_t *arr, int length){
	for(int i = 0; i < length; i++){
 146:	20 e0       	ldi	r18, 0x00	; 0
 148:	30 e0       	ldi	r19, 0x00	; 0
 14a:	06 c0       	rjmp	.+12     	; 0x158 <init_arr+0x12>
		arr[i] = 0x00;
 14c:	fc 01       	movw	r30, r24
 14e:	e2 0f       	add	r30, r18
 150:	f3 1f       	adc	r31, r19
 152:	10 82       	st	Z, r1
	}
	return 0;
}

int init_arr(uint8_t *arr, int length){
	for(int i = 0; i < length; i++){
 154:	2f 5f       	subi	r18, 0xFF	; 255
 156:	3f 4f       	sbci	r19, 0xFF	; 255
 158:	26 17       	cp	r18, r22
 15a:	37 07       	cpc	r19, r23
 15c:	bc f3       	brlt	.-18     	; 0x14c <init_arr+0x6>
		arr[i] = 0x00;
	}
}
 15e:	08 95       	ret

00000160 <Calc_CheckSum>:

uint8_t Calc_CheckSum(uint8_t* data){
 160:	dc 01       	movw	r26, r24
	uint8_t size = data[2];
 162:	12 96       	adiw	r26, 0x02	; 2
 164:	3c 91       	ld	r19, X
 166:	12 97       	sbiw	r26, 0x02	; 2
	uint8_t ret = size;
 168:	83 2f       	mov	r24, r19
	for(uint8_t i = 0; i < size;i++){
 16a:	90 e0       	ldi	r25, 0x00	; 0
 16c:	06 c0       	rjmp	.+12     	; 0x17a <Calc_CheckSum+0x1a>
		ret ^= data[i+3];
 16e:	fd 01       	movw	r30, r26
 170:	e9 0f       	add	r30, r25
 172:	f1 1d       	adc	r31, r1
 174:	23 81       	ldd	r18, Z+3	; 0x03
 176:	82 27       	eor	r24, r18
}

uint8_t Calc_CheckSum(uint8_t* data){
	uint8_t size = data[2];
	uint8_t ret = size;
	for(uint8_t i = 0; i < size;i++){
 178:	9f 5f       	subi	r25, 0xFF	; 255
 17a:	93 17       	cp	r25, r19
 17c:	c0 f3       	brcs	.-16     	; 0x16e <Calc_CheckSum+0xe>
		ret ^= data[i+3];
	}
	return ret;
}
 17e:	08 95       	ret

00000180 <make_byte>:

uint8_t make_byte(){
	uint8_t recv_data;
	uint8_t recv_byte = 0x00;
	uint8_t send_byte;
	for(int i = 0; i < 8; i++){
 180:	20 e0       	ldi	r18, 0x00	; 0
 182:	30 e0       	ldi	r19, 0x00	; 0



uint8_t make_byte(){
	uint8_t recv_data;
	uint8_t recv_byte = 0x00;
 184:	90 e0       	ldi	r25, 0x00	; 0
	uint8_t send_byte;
	for(int i = 0; i < 8; i++){
 186:	16 c0       	rjmp	.+44     	; 0x1b4 <make_byte+0x34>
		recv_data = PINB & 0x01;
 188:	83 b1       	in	r24, 0x03	; 3
		recv_byte += recv_data << i;
 18a:	48 2f       	mov	r20, r24
 18c:	41 70       	andi	r20, 0x01	; 1
 18e:	50 e0       	ldi	r21, 0x00	; 0
 190:	ba 01       	movw	r22, r20
 192:	02 2e       	mov	r0, r18
 194:	02 c0       	rjmp	.+4      	; 0x19a <make_byte+0x1a>
 196:	66 0f       	add	r22, r22
 198:	77 1f       	adc	r23, r23
 19a:	0a 94       	dec	r0
 19c:	e2 f7       	brpl	.-8      	; 0x196 <make_byte+0x16>
 19e:	96 0f       	add	r25, r22
	#else
		//round up by default
		__ticks_dc = (uint32_t)(ceil(fabs(__tmp)));
	#endif

	__builtin_avr_delay_cycles(__ticks_dc);
 1a0:	ef e9       	ldi	r30, 0x9F	; 159
 1a2:	ff e0       	ldi	r31, 0x0F	; 15
 1a4:	31 97       	sbiw	r30, 0x01	; 1
 1a6:	f1 f7       	brne	.-4      	; 0x1a4 <make_byte+0x24>
 1a8:	00 c0       	rjmp	.+0      	; 0x1aa <make_byte+0x2a>
 1aa:	00 00       	nop
		_delay_ms(WAIT_TIME_MS);
		send_byte = ~recv_byte;
 1ac:	89 2f       	mov	r24, r25
 1ae:	80 95       	com	r24

uint8_t make_byte(){
	uint8_t recv_data;
	uint8_t recv_byte = 0x00;
	uint8_t send_byte;
	for(int i = 0; i < 8; i++){
 1b0:	2f 5f       	subi	r18, 0xFF	; 255
 1b2:	3f 4f       	sbci	r19, 0xFF	; 255
 1b4:	28 30       	cpi	r18, 0x08	; 8
 1b6:	31 05       	cpc	r19, r1
 1b8:	3c f3       	brlt	.-50     	; 0x188 <make_byte+0x8>
		recv_byte += recv_data << i;
		_delay_ms(WAIT_TIME_MS);
		send_byte = ~recv_byte;
	}
	return send_byte;
}
 1ba:	08 95       	ret

000001bc <check_signal>:


int check_signal(uint8_t *data){
 1bc:	cf 93       	push	r28
	if(data[0] != 0xA5 || data[1] != 0x5A) return 0;
 1be:	fc 01       	movw	r30, r24
 1c0:	20 81       	ld	r18, Z
 1c2:	25 3a       	cpi	r18, 0xA5	; 165
 1c4:	61 f4       	brne	.+24     	; 0x1de <check_signal+0x22>
 1c6:	21 81       	ldd	r18, Z+1	; 0x01
 1c8:	2a 35       	cpi	r18, 0x5A	; 90
 1ca:	61 f4       	brne	.+24     	; 0x1e4 <check_signal+0x28>
	return data[DATA_LENGTH - 1] == Calc_CheckSum(data);
 1cc:	c6 81       	ldd	r28, Z+6	; 0x06
 1ce:	0e 94 b0 00 	call	0x160	; 0x160 <Calc_CheckSum>
 1d2:	91 e0       	ldi	r25, 0x01	; 1
 1d4:	c8 13       	cpse	r28, r24
 1d6:	90 e0       	ldi	r25, 0x00	; 0
 1d8:	89 2f       	mov	r24, r25
 1da:	90 e0       	ldi	r25, 0x00	; 0
 1dc:	05 c0       	rjmp	.+10     	; 0x1e8 <check_signal+0x2c>
	return send_byte;
}


int check_signal(uint8_t *data){
	if(data[0] != 0xA5 || data[1] != 0x5A) return 0;
 1de:	80 e0       	ldi	r24, 0x00	; 0
 1e0:	90 e0       	ldi	r25, 0x00	; 0
 1e2:	02 c0       	rjmp	.+4      	; 0x1e8 <check_signal+0x2c>
 1e4:	80 e0       	ldi	r24, 0x00	; 0
 1e6:	90 e0       	ldi	r25, 0x00	; 0
	return data[DATA_LENGTH - 1] == Calc_CheckSum(data);
}
 1e8:	cf 91       	pop	r28
 1ea:	08 95       	ret

000001ec <make_transit_signal>:

uint8_t* make_transit_signal(uint8_t *data, uint8_t ret[4]){
 1ec:	ac 01       	movw	r20, r24
	/*
	fixme: null data
	*///data[2]‚É‚µ‚½‚¢
	//init_arr(ret, DATA_LENGTH);
	ret[0] = 0xA5;
 1ee:	85 ea       	ldi	r24, 0xA5	; 165
 1f0:	fb 01       	movw	r30, r22
 1f2:	80 83       	st	Z, r24
	for(int i = 0; i < 3; i++){
 1f4:	20 e0       	ldi	r18, 0x00	; 0
 1f6:	30 e0       	ldi	r19, 0x00	; 0
 1f8:	0b c0       	rjmp	.+22     	; 0x210 <make_transit_signal+0x24>
		ret[i] = data[i + 3];
 1fa:	fb 01       	movw	r30, r22
 1fc:	e2 0f       	add	r30, r18
 1fe:	f3 1f       	adc	r31, r19
 200:	da 01       	movw	r26, r20
 202:	a2 0f       	add	r26, r18
 204:	b3 1f       	adc	r27, r19
 206:	13 96       	adiw	r26, 0x03	; 3
 208:	9c 91       	ld	r25, X
 20a:	90 83       	st	Z, r25
	/*
	fixme: null data
	*///data[2]‚É‚µ‚½‚¢
	//init_arr(ret, DATA_LENGTH);
	ret[0] = 0xA5;
	for(int i = 0; i < 3; i++){
 20c:	2f 5f       	subi	r18, 0xFF	; 255
 20e:	3f 4f       	sbci	r19, 0xFF	; 255
 210:	23 30       	cpi	r18, 0x03	; 3
 212:	31 05       	cpc	r19, r1
 214:	94 f3       	brlt	.-28     	; 0x1fa <make_transit_signal+0xe>
		ret[i] = data[i + 3];
	}
	ret[3] = 0xFF;
 216:	8f ef       	ldi	r24, 0xFF	; 255
 218:	fb 01       	movw	r30, r22
 21a:	83 83       	std	Z+3, r24	; 0x03
	return ret;
}
 21c:	cb 01       	movw	r24, r22
 21e:	08 95       	ret

00000220 <main>:


int main(void)
{	
 220:	cf 93       	push	r28
 222:	df 93       	push	r29
 224:	cd b7       	in	r28, 0x3d	; 61
 226:	de b7       	in	r29, 0x3e	; 62
 228:	2c 97       	sbiw	r28, 0x0c	; 12
 22a:	0f b6       	in	r0, 0x3f	; 63
 22c:	f8 94       	cli
 22e:	de bf       	out	0x3e, r29	; 62
 230:	0f be       	out	0x3f, r0	; 63
 232:	cd bf       	out	0x3d, r28	; 61
    uint8_t recv_data;
	uint8_t send_byte;
	
    GoTo16MHz();
 234:	0e 94 6d 00 	call	0xda	; 0xda <GoTo16MHz>
    USART1_Init();
 238:	0e 94 7f 01 	call	0x2fe	; 0x2fe <USART1_Init>

    DDRB &= ~0x01;
 23c:	84 b1       	in	r24, 0x04	; 4
 23e:	8e 7f       	andi	r24, 0xFE	; 254
 240:	84 b9       	out	0x04, r24	; 4
	DDRB |= 0x02;
 242:	84 b1       	in	r24, 0x04	; 4
 244:	82 60       	ori	r24, 0x02	; 2
 246:	84 b9       	out	0x04, r24	; 4
	
	PORTB &= ~0x02;
 248:	85 b1       	in	r24, 0x05	; 5
 24a:	8d 7f       	andi	r24, 0xFD	; 253
 24c:	85 b9       	out	0x05, r24	; 5
	
    while (1) {
        recv_data = PINB & 0x01;
 24e:	83 b1       	in	r24, 0x03	; 3
		while((PINB & 0x01) == 0x01){
 250:	02 c0       	rjmp	.+4      	; 0x256 <main+0x36>
			PORTB = 0x02;
 252:	82 e0       	ldi	r24, 0x02	; 2
 254:	85 b9       	out	0x05, r24	; 5
	
	PORTB &= ~0x02;
	
    while (1) {
        recv_data = PINB & 0x01;
		while((PINB & 0x01) == 0x01){
 256:	18 99       	sbic	0x03, 0	; 3
 258:	fc cf       	rjmp	.-8      	; 0x252 <main+0x32>
 25a:	8f e9       	ldi	r24, 0x9F	; 159
 25c:	9f e0       	ldi	r25, 0x0F	; 15
 25e:	01 97       	sbiw	r24, 0x01	; 1
 260:	f1 f7       	brne	.-4      	; 0x25e <main+0x3e>
 262:	00 c0       	rjmp	.+0      	; 0x264 <main+0x44>
 264:	00 00       	nop
			PORTB = 0x02;
		}
		_delay_ms(WAIT_TIME_MS);
		PORTB = 0x00;
 266:	15 b8       	out	0x05, r1	; 5
		uint8_t data[DATA_LENGTH + 1];
		init_arr(data, DATA_LENGTH + 1);
 268:	68 e0       	ldi	r22, 0x08	; 8
 26a:	70 e0       	ldi	r23, 0x00	; 0
 26c:	ce 01       	movw	r24, r28
 26e:	01 96       	adiw	r24, 0x01	; 1
 270:	0e 94 a3 00 	call	0x146	; 0x146 <init_arr>
		for(int i = 0; i < DATA_LENGTH; i++){
 274:	00 e0       	ldi	r16, 0x00	; 0
 276:	10 e0       	ldi	r17, 0x00	; 0
 278:	11 c0       	rjmp	.+34     	; 0x29c <main+0x7c>
			data[i] =  make_byte();
 27a:	0e 94 c0 00 	call	0x180	; 0x180 <make_byte>
 27e:	e1 e0       	ldi	r30, 0x01	; 1
 280:	f0 e0       	ldi	r31, 0x00	; 0
 282:	ec 0f       	add	r30, r28
 284:	fd 1f       	adc	r31, r29
 286:	e0 0f       	add	r30, r16
 288:	f1 1f       	adc	r31, r17
 28a:	80 83       	st	Z, r24
 28c:	8f e9       	ldi	r24, 0x9F	; 159
 28e:	9f e0       	ldi	r25, 0x0F	; 15
 290:	01 97       	sbiw	r24, 0x01	; 1
 292:	f1 f7       	brne	.-4      	; 0x290 <main+0x70>
 294:	00 c0       	rjmp	.+0      	; 0x296 <main+0x76>
 296:	00 00       	nop
		}
		_delay_ms(WAIT_TIME_MS);
		PORTB = 0x00;
		uint8_t data[DATA_LENGTH + 1];
		init_arr(data, DATA_LENGTH + 1);
		for(int i = 0; i < DATA_LENGTH; i++){
 298:	0f 5f       	subi	r16, 0xFF	; 255
 29a:	1f 4f       	sbci	r17, 0xFF	; 255
 29c:	07 30       	cpi	r16, 0x07	; 7
 29e:	11 05       	cpc	r17, r1
 2a0:	64 f3       	brlt	.-40     	; 0x27a <main+0x5a>
			data[i] =  make_byte();
			_delay_ms(WAIT_TIME_MS);
		}
		data[DATA_LENGTH] = '\0';
 2a2:	18 86       	std	Y+8, r1	; 0x08
		uint8_t send_data[4] = {0x00, 0x00, 0x00, 0xFF};
 2a4:	19 86       	std	Y+9, r1	; 0x09
 2a6:	1a 86       	std	Y+10, r1	; 0x0a
 2a8:	1b 86       	std	Y+11, r1	; 0x0b
 2aa:	8f ef       	ldi	r24, 0xFF	; 255
 2ac:	8c 87       	std	Y+12, r24	; 0x0c
		if(!check_signal(data)){
 2ae:	ce 01       	movw	r24, r28
 2b0:	01 96       	adiw	r24, 0x01	; 1
 2b2:	0e 94 de 00 	call	0x1bc	; 0x1bc <check_signal>
 2b6:	89 2b       	or	r24, r25
 2b8:	49 f4       	brne	.+18     	; 0x2cc <main+0xac>
			uart1_send_strings("Data was broken");
 2ba:	80 e0       	ldi	r24, 0x00	; 0
 2bc:	91 e0       	ldi	r25, 0x01	; 1
 2be:	0e 94 73 00 	call	0xe6	; 0xe6 <uart1_send_strings>
			uart1_send_strings("\r\n");	
 2c2:	80 e1       	ldi	r24, 0x10	; 16
 2c4:	91 e0       	ldi	r25, 0x01	; 1
 2c6:	0e 94 73 00 	call	0xe6	; 0xe6 <uart1_send_strings>
 2ca:	c1 cf       	rjmp	.-126    	; 0x24e <main+0x2e>
			continue;
		}
		make_transit_signal(data, send_data);
 2cc:	be 01       	movw	r22, r28
 2ce:	67 5f       	subi	r22, 0xF7	; 247
 2d0:	7f 4f       	sbci	r23, 0xFF	; 255
 2d2:	ce 01       	movw	r24, r28
 2d4:	01 96       	adiw	r24, 0x01	; 1
 2d6:	0e 94 f6 00 	call	0x1ec	; 0x1ec <make_transit_signal>
		//uart1_send_uint8t(data);
		uart1_send_uint8t(send_data);
 2da:	ce 01       	movw	r24, r28
 2dc:	09 96       	adiw	r24, 0x09	; 9
 2de:	0e 94 8b 00 	call	0x116	; 0x116 <uart1_send_uint8t>
		uart1_send_strings("\r\n");
 2e2:	80 e1       	ldi	r24, 0x10	; 16
 2e4:	91 e0       	ldi	r25, 0x01	; 1
 2e6:	0e 94 73 00 	call	0xe6	; 0xe6 <uart1_send_strings>
 2ea:	9f ef       	ldi	r25, 0xFF	; 255
 2ec:	29 e6       	ldi	r18, 0x69	; 105
 2ee:	88 e1       	ldi	r24, 0x18	; 24
 2f0:	91 50       	subi	r25, 0x01	; 1
 2f2:	20 40       	sbci	r18, 0x00	; 0
 2f4:	80 40       	sbci	r24, 0x00	; 0
 2f6:	e1 f7       	brne	.-8      	; 0x2f0 <main+0xd0>
 2f8:	00 c0       	rjmp	.+0      	; 0x2fa <main+0xda>
 2fa:	00 00       	nop
 2fc:	a8 cf       	rjmp	.-176    	; 0x24e <main+0x2e>

000002fe <USART1_Init>:
 2fe:	88 e0       	ldi	r24, 0x08	; 8
 300:	90 e0       	ldi	r25, 0x00	; 0
 302:	90 93 cd 00 	sts	0x00CD, r25	; 0x8000cd <__TEXT_REGION_LENGTH__+0x7f80cd>
 306:	80 93 cc 00 	sts	0x00CC, r24	; 0x8000cc <__TEXT_REGION_LENGTH__+0x7f80cc>
 30a:	10 92 c8 00 	sts	0x00C8, r1	; 0x8000c8 <__TEXT_REGION_LENGTH__+0x7f80c8>
 30e:	88 e1       	ldi	r24, 0x18	; 24
 310:	80 93 c9 00 	sts	0x00C9, r24	; 0x8000c9 <__TEXT_REGION_LENGTH__+0x7f80c9>
 314:	86 e0       	ldi	r24, 0x06	; 6
 316:	80 93 ca 00 	sts	0x00CA, r24	; 0x8000ca <__TEXT_REGION_LENGTH__+0x7f80ca>
 31a:	10 92 cb 00 	sts	0x00CB, r1	; 0x8000cb <__TEXT_REGION_LENGTH__+0x7f80cb>
 31e:	08 95       	ret

00000320 <UART1_Byte_Send>:
 320:	90 91 c8 00 	lds	r25, 0x00C8	; 0x8000c8 <__TEXT_REGION_LENGTH__+0x7f80c8>
 324:	95 ff       	sbrs	r25, 5
 326:	fc cf       	rjmp	.-8      	; 0x320 <UART1_Byte_Send>
 328:	80 93 ce 00 	sts	0x00CE, r24	; 0x8000ce <__TEXT_REGION_LENGTH__+0x7f80ce>
 32c:	08 95       	ret

0000032e <_exit>:
 32e:	f8 94       	cli

00000330 <__stop_program>:
 330:	ff cf       	rjmp	.-2      	; 0x330 <__stop_program>
